target datalayout = "e-m:e-p270:32:32-p271:32:32-p272:64:64-i64:64-i128:128-f80:128-n8:16:32:64-S128"
target triple = "x86_64-pc-linux-gnu"

%struct.H5C_class_t = type { i32, ptr, i32, i32, ptr, ptr, ptr, ptr, ptr, ptr, ptr, ptr, ptr, ptr }
%struct.H5HF_t = type { ptr, ptr }
%struct.H5HF_hdr_t = type { %struct.H5C_cache_entry_t, i32, i32, i8, i8, i8, i8, %struct.H5HF_dtable_t, i64, i64, i32, i64, i64, %struct.H5O_pline_t, i64, i32, i64, i64, i64, i64, i64, i64, i64, i64, i64, i64, i64, i32, ptr, i64, i8, i8, i8, ptr, i32, ptr, %struct.H5HF_block_iter_t, ptr, i64, i8, i8, i64, i8, i8, i8, i8 }
%struct.H5C_cache_entry_t = type { ptr, i64, i64, ptr, i8, ptr, i8, i8, i8, i8, i32, i8, i8, i8, i8, i8, i32, ptr, i32, i32, i32, i32, i32, i8, i8, ptr, ptr, ptr, ptr, ptr, ptr, i8, i32, i8, i64, ptr, i64, i64, i32, i8, i32, i32, i8, ptr, ptr, ptr }
%struct.H5HF_dtable_t = type { %struct.H5HF_dtable_cparam_t, i64, i32, i32, i32, i32, i32, i32, i32, i64, ptr, ptr, ptr, ptr }
%struct.H5HF_dtable_cparam_t = type { i32, i64, i64, i32, i32 }
%struct.H5O_pline_t = type { %struct.H5O_shared_t, i32, i64, i64, ptr }
%struct.H5O_shared_t = type { i32, ptr, i32, %union.anon }
%union.anon = type { %struct.H5O_mesg_loc_t }
%struct.H5O_mesg_loc_t = type { i32, i64 }
%struct.H5HF_block_iter_t = type { i8, ptr }

@H5HF_init_g = global i8 0, align 1
@H5_libterm_g = external global i8, align 1
@.str = private unnamed_addr constant [98 x i8] c"generated/home/dtcxzyw/WorkSpace/Projects/compilers/llvm-opt-benchmark/bench/hdf5/hdf5/src/H5HF.c\00", align 1
@H5E_HEAP_g = external global i64, align 8
@H5E_CANTALLOC_g = external global i64, align 8
@.str.2 = private unnamed_addr constant [47 x i8] c"memory allocation failed for fractal heap info\00", align 1
@H5E_CANTPROTECT_g = external global i64, align 8
@.str.3 = private unnamed_addr constant [38 x i8] c"unable to protect fractal heap header\00", align 1
@H5E_CANTINC_g = external global i64, align 8
@.str.4 = private unnamed_addr constant [54 x i8] c"can't increment reference count on shared heap header\00", align 1
@.str.5 = private unnamed_addr constant [59 x i8] c"can't increment file reference count on shared heap header\00", align 1
@H5AC_FHEAP_HDR = external constant [1 x %struct.H5C_class_t], align 16
@H5E_CANTUNPROTECT_g = external global i64, align 8
@.str.6 = private unnamed_addr constant [38 x i8] c"unable to release fractal heap header\00", align 1
@H5E_CANTCLOSEOBJ_g = external global i64, align 8
@.str.7 = private unnamed_addr constant [29 x i8] c"unable to close fractal heap\00", align 1
@__func__.H5HF_open = private unnamed_addr constant [10 x i8] c"H5HF_open\00", align 1
@H5E_CANTOPENOBJ_g = external global i64, align 8
@.str.8 = private unnamed_addr constant [41 x i8] c"can't open fractal heap pending deletion\00", align 1
@H5_H5HF_t_reg_free_list = internal global { i8, [3 x i8], i32, i32, [4 x i8], ptr, i64, ptr } { i8 0, [3 x i8] zeroinitializer, i32 0, i32 0, [4 x i8] zeroinitializer, ptr @.str.38, i64 16, ptr null }, align 8

; Function Attrs: nounwind uwtable
define ptr @H5HF_open(ptr noundef %0, i64 noundef %1) #0 {
  %3 = alloca ptr, align 8
  %4 = alloca i64, align 8
  %5 = alloca ptr, align 8
  %6 = alloca ptr, align 8
  %7 = alloca ptr, align 8
  %8 = alloca i8, align 1
  store ptr %0, ptr %3, align 8, !tbaa !13
  store i64 %1, ptr %4, align 8, !tbaa !7
  call void @llvm.lifetime.start.p0(i64 8, ptr %5) #6
  store ptr null, ptr %5, align 8, !tbaa !17
  call void @llvm.lifetime.start.p0(i64 8, ptr %6) #6
  store ptr null, ptr %6, align 8, !tbaa !19
  call void @llvm.lifetime.start.p0(i64 8, ptr %7) #6
  store ptr null, ptr %7, align 8, !tbaa !17
  call void @llvm.lifetime.start.p0(i64 1, ptr %8) #6
  store i8 0, ptr %8, align 1, !tbaa !9
  %9 = load i8, ptr @H5HF_init_g, align 1, !tbaa !9, !range !11, !noundef !12
  %10 = trunc i8 %9 to i1
  br i1 %10, label %15, label %11

11:                                               ; preds = %2
  %12 = load i8, ptr @H5_libterm_g, align 1, !tbaa !9, !range !11, !noundef !12
  %13 = trunc i8 %12 to i1
  %14 = xor i1 %13, true
  br label %15

15:                                               ; preds = %11, %2
  %16 = phi i1 [ false, %2 ], [ %14, %11 ]
  %17 = xor i1 %16, true
  %18 = xor i1 %17, true
  %19 = zext i1 %18 to i32
  %20 = sext i32 %19 to i64
  %21 = call i64 @llvm.expect.i64(i64 %20, i64 0)
  %22 = icmp ne i64 %21, 0
  br i1 %22, label %23, label %24

23:                                               ; preds = %15
  store i8 1, ptr @H5HF_init_g, align 1, !tbaa !9
  br label %24

24:                                               ; preds = %23, %15
  %25 = load i8, ptr @H5HF_init_g, align 1, !tbaa !9, !range !11, !noundef !12
  %26 = trunc i8 %25 to i1
  br i1 %26, label %31, label %27

27:                                               ; preds = %24
  %28 = load i8, ptr @H5_libterm_g, align 1, !tbaa !9, !range !11, !noundef !12
  %29 = trunc i8 %28 to i1
  %30 = xor i1 %29, true
  br label %31

31:                                               ; preds = %27, %24
  %32 = phi i1 [ true, %24 ], [ %30, %27 ]
  %33 = xor i1 %32, true
  %34 = xor i1 %33, true
  %35 = zext i1 %34 to i32
  %36 = sext i32 %35 to i64
  %37 = call i64 @llvm.expect.i64(i64 %36, i64 1)
  %38 = icmp ne i64 %37, 0
  br i1 %38, label %39, label %220

39:                                               ; preds = %31
  %40 = load ptr, ptr %3, align 8, !tbaa !13
  %41 = load i64, ptr %4, align 8, !tbaa !7
  %42 = call ptr @H5HF__hdr_protect(ptr noundef %40, i64 noundef %41, i32 noundef 128)
  store ptr %42, ptr %6, align 8, !tbaa !19
  %43 = icmp eq ptr null, %42
  br i1 %43, label %44, label %63

44:                                               ; preds = %39
  br label %45

45:                                               ; preds = %44
  br label %46

46:                                               ; preds = %45
  br label %47

47:                                               ; preds = %46
  %48 = load i64, ptr @H5E_HEAP_g, align 8, !tbaa !7
  %49 = load i64, ptr @H5E_CANTPROTECT_g, align 8, !tbaa !7
  %50 = call i32 (ptr, ptr, i32, i64, i64, ptr, ...) @H5E_printf_stack(ptr noundef @.str, ptr noundef @__func__.H5HF_open, i32 noundef 213, i64 noundef %48, i64 noundef %49, ptr noundef @.str.3)
  br label %51

51:                                               ; preds = %47
  br label %52

52:                                               ; preds = %51
  store i8 1, ptr %8, align 1, !tbaa !9
  %53 = load i8, ptr %8, align 1, !tbaa !9, !range !11, !noundef !12
  %54 = trunc i8 %53 to i1
  %55 = zext i1 %54 to i8
  store i8 %55, ptr %8, align 1, !tbaa !9
  br label %56

56:                                               ; preds = %52
  br label %57

57:                                               ; preds = %56
  br label %58

58:                                               ; preds = %57
  store ptr null, ptr %7, align 8, !tbaa !17
  br label %167

59:                                               ; No predecessors!
  br label %60

60:                                               ; preds = %59
  br label %61

61:                                               ; preds = %60
  br label %62

62:                                               ; preds = %61
  br label %63

63:                                               ; preds = %62, %39
  %64 = load ptr, ptr %6, align 8, !tbaa !19
  %65 = getelementptr inbounds nuw %struct.H5HF_hdr_t, ptr %64, i32 0, i32 30
  %66 = load i8, ptr %65, align 8, !tbaa !45, !range !11, !noundef !12
  %67 = trunc i8 %66 to i1
  br i1 %67, label %68, label %87

68:                                               ; preds = %63
  br label %69

69:                                               ; preds = %68
  br label %70

70:                                               ; preds = %69
  br label %71

71:                                               ; preds = %70
  %72 = load i64, ptr @H5E_HEAP_g, align 8, !tbaa !7
  %73 = load i64, ptr @H5E_CANTOPENOBJ_g, align 8, !tbaa !7
  %74 = call i32 (ptr, ptr, i32, i64, i64, ptr, ...) @H5E_printf_stack(ptr noundef @.str, ptr noundef @__func__.H5HF_open, i32 noundef 217, i64 noundef %72, i64 noundef %73, ptr noundef @.str.8)
  br label %75

75:                                               ; preds = %71
  br label %76

76:                                               ; preds = %75
  store i8 1, ptr %8, align 1, !tbaa !9
  %77 = load i8, ptr %8, align 1, !tbaa !9, !range !11, !noundef !12
  %78 = trunc i8 %77 to i1
  %79 = zext i1 %78 to i8
  store i8 %79, ptr %8, align 1, !tbaa !9
  br label %80

80:                                               ; preds = %76
  br label %81

81:                                               ; preds = %80
  br label %82

82:                                               ; preds = %81
  store ptr null, ptr %7, align 8, !tbaa !17
  br label %167

83:                                               ; No predecessors!
  br label %84

84:                                               ; preds = %83
  br label %85

85:                                               ; preds = %84
  br label %86

86:                                               ; preds = %85
  br label %87

87:                                               ; preds = %86, %63
  %88 = call noalias ptr @H5FL_reg_malloc(ptr noundef @H5_H5HF_t_reg_free_list)
  store ptr %88, ptr %5, align 8, !tbaa !17
  %89 = icmp eq ptr null, %88
  br i1 %89, label %90, label %109

90:                                               ; preds = %87
  br label %91

91:                                               ; preds = %90
  br label %92

92:                                               ; preds = %91
  br label %93

93:                                               ; preds = %92
  %94 = load i64, ptr @H5E_HEAP_g, align 8, !tbaa !7
  %95 = load i64, ptr @H5E_CANTALLOC_g, align 8, !tbaa !7
  %96 = call i32 (ptr, ptr, i32, i64, i64, ptr, ...) @H5E_printf_stack(ptr noundef @.str, ptr noundef @__func__.H5HF_open, i32 noundef 221, i64 noundef %94, i64 noundef %95, ptr noundef @.str.2)
  br label %97

97:                                               ; preds = %93
  br label %98

98:                                               ; preds = %97
  store i8 1, ptr %8, align 1, !tbaa !9
  %99 = load i8, ptr %8, align 1, !tbaa !9, !range !11, !noundef !12
  %100 = trunc i8 %99 to i1
  %101 = zext i1 %100 to i8
  store i8 %101, ptr %8, align 1, !tbaa !9
  br label %102

102:                                              ; preds = %98
  br label %103

103:                                              ; preds = %102
  br label %104

104:                                              ; preds = %103
  store ptr null, ptr %7, align 8, !tbaa !17
  br label %167

105:                                              ; No predecessors!
  br label %106

106:                                              ; preds = %105
  br label %107

107:                                              ; preds = %106
  br label %108

108:                                              ; preds = %107
  br label %109

109:                                              ; preds = %108, %87
  %110 = load ptr, ptr %6, align 8, !tbaa !19
  %111 = load ptr, ptr %5, align 8, !tbaa !17
  %112 = getelementptr inbounds nuw %struct.H5HF_t, ptr %111, i32 0, i32 0
  store ptr %110, ptr %112, align 8, !tbaa !21
  %113 = load ptr, ptr %5, align 8, !tbaa !17
  %114 = getelementptr inbounds nuw %struct.H5HF_t, ptr %113, i32 0, i32 0
  %115 = load ptr, ptr %114, align 8, !tbaa !21
  %116 = call i32 @H5HF__hdr_incr(ptr noundef %115)
  %117 = icmp slt i32 %116, 0
  br i1 %117, label %118, label %137

118:                                              ; preds = %109
  br label %119

119:                                              ; preds = %118
  br label %120

120:                                              ; preds = %119
  br label %121

121:                                              ; preds = %120
  %122 = load i64, ptr @H5E_HEAP_g, align 8, !tbaa !7
  %123 = load i64, ptr @H5E_CANTINC_g, align 8, !tbaa !7
  %124 = call i32 (ptr, ptr, i32, i64, i64, ptr, ...) @H5E_printf_stack(ptr noundef @.str, ptr noundef @__func__.H5HF_open, i32 noundef 226, i64 noundef %122, i64 noundef %123, ptr noundef @.str.4)
  br label %125

125:                                              ; preds = %121
  br label %126

126:                                              ; preds = %125
  store i8 1, ptr %8, align 1, !tbaa !9
  %127 = load i8, ptr %8, align 1, !tbaa !9, !range !11, !noundef !12
  %128 = trunc i8 %127 to i1
  %129 = zext i1 %128 to i8
  store i8 %129, ptr %8, align 1, !tbaa !9
  br label %130

130:                                              ; preds = %126
  br label %131

131:                                              ; preds = %130
  br label %132

132:                                              ; preds = %131
  store ptr null, ptr %7, align 8, !tbaa !17
  br label %167

133:                                              ; No predecessors!
  br label %134

134:                                              ; preds = %133
  br label %135

135:                                              ; preds = %134
  br label %136

136:                                              ; preds = %135
  br label %137

137:                                              ; preds = %136, %109
  %138 = load ptr, ptr %5, align 8, !tbaa !17
  %139 = getelementptr inbounds nuw %struct.H5HF_t, ptr %138, i32 0, i32 0
  %140 = load ptr, ptr %139, align 8, !tbaa !21
  %141 = call i32 @H5HF__hdr_fuse_incr(ptr noundef %140)
  %142 = icmp slt i32 %141, 0
  br i1 %142, label %143, label %162

143:                                              ; preds = %137
  br label %144

144:                                              ; preds = %143
  br label %145

145:                                              ; preds = %144
  br label %146

146:                                              ; preds = %145
  %147 = load i64, ptr @H5E_HEAP_g, align 8, !tbaa !7
  %148 = load i64, ptr @H5E_CANTINC_g, align 8, !tbaa !7
  %149 = call i32 (ptr, ptr, i32, i64, i64, ptr, ...) @H5E_printf_stack(ptr noundef @.str, ptr noundef @__func__.H5HF_open, i32 noundef 231, i64 noundef %147, i64 noundef %148, ptr noundef @.str.5)
  br label %150

150:                                              ; preds = %146
  br label %151

151:                                              ; preds = %150
  store i8 1, ptr %8, align 1, !tbaa !9
  %152 = load i8, ptr %8, align 1, !tbaa !9, !range !11, !noundef !12
  %153 = trunc i8 %152 to i1
  %154 = zext i1 %153 to i8
  store i8 %154, ptr %8, align 1, !tbaa !9
  br label %155

155:                                              ; preds = %151
  br label %156

156:                                              ; preds = %155
  br label %157

157:                                              ; preds = %156
  store ptr null, ptr %7, align 8, !tbaa !17
  br label %167

158:                                              ; No predecessors!
  br label %159

159:                                              ; preds = %158
  br label %160

160:                                              ; preds = %159
  br label %161

161:                                              ; preds = %160
  br label %162

162:                                              ; preds = %161, %137
  %163 = load ptr, ptr %3, align 8, !tbaa !13
  %164 = load ptr, ptr %5, align 8, !tbaa !17
  %165 = getelementptr inbounds nuw %struct.H5HF_t, ptr %164, i32 0, i32 1
  store ptr %163, ptr %165, align 8, !tbaa !23
  %166 = load ptr, ptr %5, align 8, !tbaa !17
  store ptr %166, ptr %7, align 8, !tbaa !17
  br label %167

167:                                              ; preds = %162, %157, %132, %104, %82, %58
  %168 = load ptr, ptr %6, align 8, !tbaa !19
  %169 = icmp ne ptr %168, null
  br i1 %169, label %170, label %192

170:                                              ; preds = %167
  %171 = load ptr, ptr %3, align 8, !tbaa !13
  %172 = load i64, ptr %4, align 8, !tbaa !7
  %173 = load ptr, ptr %6, align 8, !tbaa !19
  %174 = call i32 @H5AC_unprotect(ptr noundef %171, ptr noundef @H5AC_FHEAP_HDR, i64 noundef %172, ptr noundef %173, i32 noundef 0)
  %175 = icmp slt i32 %174, 0
  br i1 %175, label %176, label %192

176:                                              ; preds = %170
  br label %177

177:                                              ; preds = %176
  br label %178

178:                                              ; preds = %177
  br label %179

179:                                              ; preds = %178
  %180 = load i64, ptr @H5E_HEAP_g, align 8, !tbaa !7
  %181 = load i64, ptr @H5E_CANTUNPROTECT_g, align 8, !tbaa !7
  %182 = call i32 (ptr, ptr, i32, i64, i64, ptr, ...) @H5E_printf_stack(ptr noundef @.str, ptr noundef @__func__.H5HF_open, i32 noundef 241, i64 noundef %180, i64 noundef %181, ptr noundef @.str.6)
  br label %183

183:                                              ; preds = %179
  br label %184

184:                                              ; preds = %183
  store i8 1, ptr %8, align 1, !tbaa !9
  %185 = load i8, ptr %8, align 1, !tbaa !9, !range !11, !noundef !12
  %186 = trunc i8 %185 to i1
  %187 = zext i1 %186 to i8
  store i8 %187, ptr %8, align 1, !tbaa !9
  br label %188

188:                                              ; preds = %184
  br label %189

189:                                              ; preds = %188
  store ptr null, ptr %7, align 8, !tbaa !17
  br label %190

190:                                              ; preds = %189
  br label %191

191:                                              ; preds = %190
  br label %192

192:                                              ; preds = %191, %170, %167
  %193 = load ptr, ptr %7, align 8, !tbaa !17
  %194 = icmp ne ptr %193, null
  br i1 %194, label %219, label %195

195:                                              ; preds = %192
  %196 = load ptr, ptr %5, align 8, !tbaa !17
  %197 = icmp ne ptr %196, null
  br i1 %197, label %198, label %219

198:                                              ; preds = %195
  %199 = load ptr, ptr %5, align 8, !tbaa !17
  %200 = call i32 @H5HF_close(ptr noundef %199)
  %201 = icmp slt i32 %200, 0
  br i1 %201, label %202, label %218

202:                                              ; preds = %198
  br label %203

203:                                              ; preds = %202
  br label %204

204:                                              ; preds = %203
  br label %205

205:                                              ; preds = %204
  %206 = load i64, ptr @H5E_HEAP_g, align 8, !tbaa !7
  %207 = load i64, ptr @H5E_CANTCLOSEOBJ_g, align 8, !tbaa !7
  %208 = call i32 (ptr, ptr, i32, i64, i64, ptr, ...) @H5E_printf_stack(ptr noundef @.str, ptr noundef @__func__.H5HF_open, i32 noundef 244, i64 noundef %206, i64 noundef %207, ptr noundef @.str.7)
  br label %209

209:                                              ; preds = %205
  br label %210

210:                                              ; preds = %209
  store i8 1, ptr %8, align 1, !tbaa !9
  %211 = load i8, ptr %8, align 1, !tbaa !9, !range !11, !noundef !12
  %212 = trunc i8 %211 to i1
  %213 = zext i1 %212 to i8
  store i8 %213, ptr %8, align 1, !tbaa !9
  br label %214

214:                                              ; preds = %210
  br label %215

215:                                              ; preds = %214
  store ptr null, ptr %7, align 8, !tbaa !17
  br label %216

216:                                              ; preds = %215
  br label %217

217:                                              ; preds = %216
  br label %218

218:                                              ; preds = %217, %198
  br label %219

219:                                              ; preds = %218, %195, %192
  br label %220

220:                                              ; preds = %219, %31
  %221 = load ptr, ptr %7, align 8, !tbaa !17
  call void @llvm.lifetime.end.p0(i64 1, ptr %8) #6
  call void @llvm.lifetime.end.p0(i64 8, ptr %7) #6
  call void @llvm.lifetime.end.p0(i64 8, ptr %6) #6
  call void @llvm.lifetime.end.p0(i64 8, ptr %5) #6
  ret ptr %221
}