; Function Attrs: nounwind uwtable
define ptr @H5HF_open(ptr noundef %0, i64 noundef %1) local_unnamed_addr #2 {
  %3 = load i8, ptr @H5HF_init_g, align 1, !tbaa !3, !range !7, !noundef !8
  %4 = trunc nuw i8 %3 to i1
  %5 = load i8, ptr @H5_libterm_g, align 1, !range !7
  %6 = trunc nuw i8 %5 to i1
  %7 = select i1 %4, i1 true, i1 %6
  br i1 %7, label %8, label %.thread, !prof !9

.thread:                                          ; preds = %2
  store i8 1, ptr @H5HF_init_g, align 1, !tbaa !3
  br label %11

8:                                                ; preds = %2
  %9 = xor i1 %6, true
  %10 = select i1 %4, i1 true, i1 %9
  br i1 %10, label %11, label %65, !prof !10

11:                                               ; preds = %.thread, %8
  %12 = tail call ptr @H5HF__hdr_protect(ptr noundef %0, i64 noundef %1, i32 noundef 128) #5
  %13 = icmp eq ptr %12, null
  br i1 %13, label %.thread36, label %14

14:                                               ; preds = %11
  %15 = getelementptr inbounds nuw i8, ptr %12, i64 616
  %16 = load i8, ptr %15, align 8, !tbaa !39, !range !7, !noundef !8
  %17 = trunc nuw i8 %16 to i1
  br i1 %17, label %18, label %22

18:                                               ; preds = %14
  %19 = load i64, ptr @H5E_HEAP_g, align 8, !tbaa !11
  %20 = load i64, ptr @H5E_CANTOPENOBJ_g, align 8, !tbaa !11
  %21 = tail call i32 (ptr, ptr, i32, i64, i64, ptr, ...) @H5E_printf_stack(ptr noundef nonnull @.str, ptr noundef nonnull @__func__.H5HF_open, i32 noundef 217, i64 noundef %19, i64 noundef %20, ptr noundef nonnull @.str.8) #5
  br label %48

22:                                               ; preds = %14
  %23 = tail call noalias ptr @H5FL_reg_malloc(ptr noundef nonnull @H5_H5HF_t_reg_free_list) #5
  %24 = icmp eq ptr %23, null
  br i1 %24, label %25, label %29

25:                                               ; preds = %22
  %26 = load i64, ptr @H5E_HEAP_g, align 8, !tbaa !11
  %27 = load i64, ptr @H5E_CANTALLOC_g, align 8, !tbaa !11
  %28 = tail call i32 (ptr, ptr, i32, i64, i64, ptr, ...) @H5E_printf_stack(ptr noundef nonnull @.str, ptr noundef nonnull @__func__.H5HF_open, i32 noundef 221, i64 noundef %26, i64 noundef %27, ptr noundef nonnull @.str.2) #5
  br label %48

29:                                               ; preds = %22
  store ptr %12, ptr %23, align 8, !tbaa !13
  %30 = tail call i32 @H5HF__hdr_incr(ptr noundef nonnull %12) #5
  %31 = icmp slt i32 %30, 0
  br i1 %31, label %32, label %36

32:                                               ; preds = %29
  %33 = load i64, ptr @H5E_HEAP_g, align 8, !tbaa !11
  %34 = load i64, ptr @H5E_CANTINC_g, align 8, !tbaa !11
  %35 = tail call i32 (ptr, ptr, i32, i64, i64, ptr, ...) @H5E_printf_stack(ptr noundef nonnull @.str, ptr noundef nonnull @__func__.H5HF_open, i32 noundef 226, i64 noundef %33, i64 noundef %34, ptr noundef nonnull @.str.4) #5
  br label %48

36:                                               ; preds = %29
  %37 = tail call i32 @H5HF__hdr_fuse_incr(ptr noundef nonnull %12) #5
  %38 = icmp slt i32 %37, 0
  br i1 %38, label %39, label %43

39:                                               ; preds = %36
  %40 = load i64, ptr @H5E_HEAP_g, align 8, !tbaa !11
  %41 = load i64, ptr @H5E_CANTINC_g, align 8, !tbaa !11
  %42 = tail call i32 (ptr, ptr, i32, i64, i64, ptr, ...) @H5E_printf_stack(ptr noundef nonnull @.str, ptr noundef nonnull @__func__.H5HF_open, i32 noundef 231, i64 noundef %40, i64 noundef %41, ptr noundef nonnull @.str.5) #5
  br label %48

43:                                               ; preds = %36
  %44 = getelementptr inbounds nuw i8, ptr %23, i64 8
  store ptr %0, ptr %44, align 8, !tbaa !18
  br label %48

.thread36:                                        ; preds = %11
  %45 = load i64, ptr @H5E_HEAP_g, align 8, !tbaa !11
  %46 = load i64, ptr @H5E_CANTPROTECT_g, align 8, !tbaa !11
  %47 = tail call i32 (ptr, ptr, i32, i64, i64, ptr, ...) @H5E_printf_stack(ptr noundef nonnull @.str, ptr noundef nonnull @__func__.H5HF_open, i32 noundef 213, i64 noundef %45, i64 noundef %46, ptr noundef nonnull @.str.3) #5
  br label %65

48:                                               ; preds = %43, %39, %32, %25, %18
  %.025.ph = phi ptr [ %23, %43 ], [ %23, %39 ], [ %23, %32 ], [ null, %25 ], [ null, %18 ]
  %.1.ph = phi ptr [ %23, %43 ], [ null, %39 ], [ null, %32 ], [ null, %25 ], [ null, %18 ]
  %49 = tail call i32 @H5AC_unprotect(ptr noundef %0, ptr noundef nonnull @H5AC_FHEAP_HDR, i64 noundef %1, ptr noundef nonnull %12, i32 noundef 0) #5
  %50 = icmp slt i32 %49, 0
  br i1 %50, label %51, label %55

51:                                               ; preds = %48
  %52 = load i64, ptr @H5E_HEAP_g, align 8, !tbaa !11
  %53 = load i64, ptr @H5E_CANTUNPROTECT_g, align 8, !tbaa !11
  %54 = tail call i32 (ptr, ptr, i32, i64, i64, ptr, ...) @H5E_printf_stack(ptr noundef nonnull @.str, ptr noundef nonnull @__func__.H5HF_open, i32 noundef 241, i64 noundef %52, i64 noundef %53, ptr noundef nonnull @.str.6) #5
  br label %55

55:                                               ; preds = %51, %48
  %.2 = phi ptr [ null, %51 ], [ %.1.ph, %48 ]
  %56 = icmp eq ptr %.2, null
  %57 = icmp ne ptr %.025.ph, null
  %or.cond = and i1 %57, %56
  br i1 %or.cond, label %58, label %65

58:                                               ; preds = %55
  %59 = tail call i32 @H5HF_close(ptr noundef nonnull %.025.ph)
  %60 = icmp slt i32 %59, 0
  br i1 %60, label %61, label %65

61:                                               ; preds = %58
  %62 = load i64, ptr @H5E_HEAP_g, align 8, !tbaa !11
  %63 = load i64, ptr @H5E_CANTCLOSEOBJ_g, align 8, !tbaa !11
  %64 = tail call i32 (ptr, ptr, i32, i64, i64, ptr, ...) @H5E_printf_stack(ptr noundef nonnull @.str, ptr noundef nonnull @__func__.H5HF_open, i32 noundef 244, i64 noundef %62, i64 noundef %63, ptr noundef nonnull @.str.7) #5
  br label %65

65:                                               ; preds = %.thread36, %55, %61, %58, %8
  %.0 = phi ptr [ null, %61 ], [ null, %58 ], [ %.2, %55 ], [ null, %8 ], [ null, %.thread36 ]
  ret ptr %.0
}